(dp1
S'OriginalConfig'
p2
ccopy_reg
_reconstructor
p3
(cWMCore.Configuration
Configuration
p4
c__builtin__
object
p5
NtRp6
(dp7
S'Site'
p8
g3
(cWMCore.Configuration
ConfigSection
p9
g5
NtRp10
(dp11
S'_internal_skipChecks'
p12
I00
sS'_internal_documentation'
p13
S''
sS'_internal_settings'
p14
c__builtin__
set
p15
((lp16
S'storageSite'
p17
atRp18
sS'_internal_name'
p19
g8
sS'_internal_docstrings'
p20
(dp21
sS'_internal_children'
p22
g15
((ltRp23
sg17
S'T3_US_Rutgers'
p24
sS'_internal_parent_ref'
p25
NsbsS'_internal_sections'
p26
(lp27
S'General'
p28
aS'JobType'
p29
aS'Data'
p30
ag8
aS'User'
p31
aS'Debug'
p32
asg28
g3
(g9
g5
NtRp33
(dp34
g12
I00
sg13
S''
sg14
g15
((lp35
S'workArea'
p36
aS'requestName'
p37
atRp38
sg19
g28
sg20
(dp39
sg22
g15
((ltRp40
sg37
S'ScoutingCaloMuon_Ntuples_Run2017D_v1'
p41
sg25
Nsg36
S'jobs_2mu_10percent'
p42
sbsS'_internal_webapps'
p43
(lp44
sg31
g3
(g9
g5
NtRp45
(dp46
g12
I00
sg13
S''
sg14
g15
((ltRp47
sg19
g31
sg20
(dp48
sg22
g15
((ltRp49
sg25
NsbsS'_internal_components'
p50
(lp51
sg32
g3
(g9
g5
NtRp52
(dp53
g12
I00
sg13
S''
sg14
g15
((ltRp54
sg19
g32
sg20
(dp55
sg22
g15
((ltRp56
sg25
Nsbsg30
g3
(g9
g5
NtRp57
(dp58
S'inputDataset'
p59
S'/ScoutingCaloMuon/Run2017D-v1/RAW'
p60
sS'outputDatasetTag'
p61
g41
sg12
I00
sS'unitsPerJob'
p62
I1
sg13
S''
sg14
g15
((lp63
g59
ag61
aS'publication'
p64
ag62
aS'ignoreLocality'
p65
aS'splitting'
p66
aS'lumiMask'
p67
aS'outLFNDirBase'
p68
atRp69
sg65
I00
sg19
g30
sg66
S'FileBased'
p70
sg20
(dp71
sg22
g15
((ltRp72
sg68
S'/store/user/hroutray/store/crab_output/muontuples_10percent_v2'
p73
sg25
Nsg67
S'./Cert_2017-2018_10percentbyrun_JSON.txt'
p74
sg64
I00
sbsg29
g3
(g9
g5
NtRp75
(dp76
S'outputFiles'
p77
(lp78
S'scouting_ntuple.root'
p79
asg12
I00
sS'pyCfgParams'
p80
(lp81
S'outputFile=scouting_ntuple.root'
p82
asg13
S''
sg14
g15
((lp83
S'psetName'
p84
aS'pluginName'
p85
ag77
ag80
aS'allowUndistributedCMSSW'
p86
atRp87
sg19
g29
sg20
(dp88
sg85
S'Analysis'
p89
sg22
g15
((ltRp90
sg86
I01
sg84
S'../python/ScoutingNtuplizer_cfg.py'
p91
sg25
NsbsbsS'voGroup'
p92
S''
sS'Server'
p93
S'cmsweb.cern.ch'
p94
sS'instance'
p95
S'prod'
p96
sS'RequestName'
p97
V200307_225553:hroutray_crab_ScoutingCaloMuon_Ntuples_Run2017D_v1
p98
sS'voRole'
p99
S'NULL'
p100
sS'Port'
p101
S''
s.